target datalayout = "e-m:e-p270:32:32-p271:32:32-p272:64:64-i64:64-i128:128-f80:128-n8:16:32:64-S128"
target triple = "x86_64-pc-linux-gnu"

%class.ciConstant = type { i8, %union.anon.2 }
%union.anon.2 = type { i64 }
%class.ciField = type { %class.ciFlags, ptr, ptr, ptr, ptr, i32, i8, ptr, ptr, %class.ciConstant }
%class.ciFlags = type <{ i32, i8, i8, [2 x i8] }>
%class.ciType = type <{ %class.ciMetadata, i8, [7 x i8] }>
%class.ciMetadata = type { %class.ciBaseObject.base, ptr }
%class.ciBaseObject.base = type <{ ptr, i32 }>

; Function Attrs: mustprogress nounwind uwtable
define linkonce_odr hidden noundef i32 @_ZNK7ciField15offset_in_bytesEv(ptr noundef nonnull align 8 dereferenceable(80) %0) #1 comdat align 2 {
  %2 = alloca ptr, align 8
  store ptr %0, ptr %2, align 8
  %3 = load ptr, ptr %2, align 8
  %4 = getelementptr inbounds %class.ciField, ptr %3, i32 0, i32 5
  %5 = load i32, ptr %4, align 8
  ret i32 %5
}

; Function Attrs: mustprogress nounwind uwtable
define linkonce_odr hidden noundef zeroext i8 @_ZNK6ciType10basic_typeEv(ptr noundef nonnull align 8 dereferenceable(25) %0) #1 comdat align 2 {
  %2 = alloca ptr, align 8
  store ptr %0, ptr %2, align 8
  %3 = load ptr, ptr %2, align 8
  %4 = getelementptr inbounds %class.ciType, ptr %3, i32 0, i32 1
  %5 = load i8, ptr %4, align 8
  ret i8 %5
}

; Function Attrs: mustprogress nounwind uwtable
define linkonce_odr hidden noundef ptr @_ZN7ciField4typeEv(ptr noundef nonnull align 8 dereferenceable(80) %0) #1 comdat align 2 {
  %2 = alloca ptr, align 8
  store ptr %0, ptr %2, align 8
  %3 = load ptr, ptr %2, align 8
  %4 = getelementptr inbounds %class.ciField, ptr %3, i32 0, i32 4
  %5 = load ptr, ptr %4, align 8
  %6 = icmp eq ptr %5, null
  br i1 %6, label %7, label %9

7:                                                ; preds = %1
  %8 = call noundef ptr @_ZN7ciField12compute_typeEv(ptr noundef nonnull align 8 dereferenceable(80) %3)
  br label %12

9:                                                ; preds = %1
  %10 = getelementptr inbounds %class.ciField, ptr %3, i32 0, i32 4
  %11 = load ptr, ptr %10, align 8
  br label %12

12:                                               ; preds = %9, %7
  %13 = phi ptr [ %8, %7 ], [ %11, %9 ]
  ret ptr %13
}

; Function Attrs: mustprogress nounwind uwtable
define hidden { i8, i64 } @_ZN10ciInstance11field_valueEP7ciField(ptr noundef nonnull align 8 dereferenceable(40) %0, ptr noundef %1) #1 align 2 {
  %3 = alloca %class.ciConstant, align 8
  %4 = alloca ptr, align 8
  %5 = alloca ptr, align 8
  store ptr %0, ptr %4, align 8
  store ptr %1, ptr %5, align 8
  %6 = load ptr, ptr %4, align 8
  %7 = load ptr, ptr %5, align 8
  %8 = call noundef ptr @_ZN7ciField4typeEv(ptr noundef nonnull align 8 dereferenceable(80) %7)
  %9 = call noundef zeroext i8 @_ZNK6ciType10basic_typeEv(ptr noundef nonnull align 8 dereferenceable(25) %8)
  %10 = load ptr, ptr %5, align 8
  %11 = call noundef i32 @_ZNK7ciField15offset_in_bytesEv(ptr noundef nonnull align 8 dereferenceable(80) %10)
  %12 = call { i8, i64 } @_ZN10ciInstance16field_value_implE9BasicTypei(ptr noundef nonnull align 8 dereferenceable(40) %6, i8 noundef zeroext %9, i32 noundef %11)
  %13 = getelementptr inbounds { i8, i64 }, ptr %3, i32 0, i32 0
  %14 = extractvalue { i8, i64 } %12, 0
  store i8 %14, ptr %13, align 8
  %15 = getelementptr inbounds { i8, i64 }, ptr %3, i32 0, i32 1
  %16 = extractvalue { i8, i64 } %12, 1
  store i64 %16, ptr %15, align 8
  %17 = load { i8, i64 }, ptr %3, align 8
  ret { i8, i64 } %17
}

; Function Attrs: mustprogress nounwind uwtable
define linkonce_odr hidden void @_ZN10ciConstantC2Ev(ptr noundef nonnull align 8 dereferenceable(16) %0) unnamed_addr #1 comdat align 2 {
  %2 = alloca ptr, align 8
  store ptr %0, ptr %2, align 8
  %3 = load ptr, ptr %2, align 8
  %4 = getelementptr inbounds %class.ciConstant, ptr %3, i32 0, i32 0
  store i8 99, ptr %4, align 8
  %5 = getelementptr inbounds %class.ciConstant, ptr %3, i32 0, i32 1
  store i64 -1, ptr %5, align 8
  ret void
}

; Function Attrs: mustprogress nounwind uwtable
define linkonce_odr hidden noundef ptr @_ZN10ciMetadata17as_instance_klassEv(ptr noundef nonnull align 8 dereferenceable(24) %0) #1 comdat align 2 {
  %2 = alloca ptr, align 8
  store ptr %0, ptr %2, align 8
  %3 = load ptr, ptr %2, align 8
  ret ptr %3
}

; Function Attrs: mustprogress nounwind uwtable
define hidden { i8, i64 } @_ZN10ciInstance21field_value_by_offsetEi(ptr noundef nonnull align 8 dereferenceable(40) %0, i32 noundef %1) #1 align 2 {
  %3 = alloca %class.ciConstant, align 8
  %4 = alloca ptr, align 8
  %5 = alloca i32, align 4
  %6 = alloca ptr, align 8
  %7 = alloca ptr, align 8
  store ptr %0, ptr %4, align 8
  store i32 %1, ptr %5, align 4
  %8 = load ptr, ptr %4, align 8
  %9 = call noundef ptr @_ZN8ciObject5klassEv(ptr noundef nonnull align 8 dereferenceable(40) %8)
  %10 = call noundef ptr @_ZN10ciMetadata17as_instance_klassEv(ptr noundef nonnull align 8 dereferenceable(24) %9)
  store ptr %10, ptr %6, align 8
  %11 = load ptr, ptr %6, align 8
  %12 = load i32, ptr %5, align 4
  %13 = call noundef ptr @_ZN15ciInstanceKlass19get_field_by_offsetEib(ptr noundef nonnull align 8 dereferenceable(144) %11, i32 noundef %12, i1 noundef zeroext false)
  store ptr %13, ptr %7, align 8
  %14 = load ptr, ptr %7, align 8
  %15 = icmp eq ptr %14, null
  br i1 %15, label %16, label %17

16:                                               ; preds = %2
  call void @_ZN10ciConstantC2Ev(ptr noundef nonnull align 8 dereferenceable(16) %3)
  br label %24

17:                                               ; preds = %2
  %18 = load ptr, ptr %7, align 8
  %19 = call { i8, i64 } @_ZN10ciInstance11field_valueEP7ciField(ptr noundef nonnull align 8 dereferenceable(40) %8, ptr noundef %18)
  %20 = getelementptr inbounds { i8, i64 }, ptr %3, i32 0, i32 0
  %21 = extractvalue { i8, i64 } %19, 0
  store i8 %21, ptr %20, align 8
  %22 = getelementptr inbounds { i8, i64 }, ptr %3, i32 0, i32 1
  %23 = extractvalue { i8, i64 } %19, 1
  store i64 %23, ptr %22, align 8
  br label %24

24:                                               ; preds = %17, %16
  %25 = load { i8, i64 }, ptr %3, align 8
  ret { i8, i64 } %25
}