; Function Attrs: mustprogress nounwind uwtable
define hidden { i8, i64 } @_ZN10ciInstance21field_value_by_offsetEi(ptr noundef nonnull align 8 dereferenceable(40) %0, i32 noundef %1) local_unnamed_addr #0 align 2 {
  %3 = tail call noundef ptr @_ZN8ciObject5klassEv(ptr noundef nonnull align 8 dereferenceable(40) %0) #5
  %4 = tail call noundef ptr @_ZN15ciInstanceKlass19get_field_by_offsetEib(ptr noundef nonnull align 8 dereferenceable(144) %3, i32 noundef %1, i1 noundef zeroext false) #5
  %5 = icmp eq ptr %4, null
  br i1 %5, label %20, label %6

6:                                                ; preds = %2
  %7 = getelementptr inbounds i8, ptr %4, i64 32
  %8 = load ptr, ptr %7, align 8
  %9 = icmp eq ptr %8, null
  br i1 %9, label %10, label %_ZN10ciInstance11field_valueEP7ciField.exit

10:                                               ; preds = %6
  %11 = tail call noundef ptr @_ZN7ciField12compute_typeEv(ptr noundef nonnull align 8 dereferenceable(80) %4) #5
  br label %_ZN10ciInstance11field_valueEP7ciField.exit

_ZN10ciInstance11field_valueEP7ciField.exit:      ; preds = %6, %10
  %12 = phi ptr [ %11, %10 ], [ %8, %6 ]
  %13 = getelementptr inbounds i8, ptr %12, i64 24
  %14 = load i8, ptr %13, align 8
  %15 = getelementptr inbounds i8, ptr %4, i64 40
  %16 = load i32, ptr %15, align 8
  %17 = tail call { i8, i64 } @_ZN10ciInstance16field_value_implE9BasicTypei(ptr noundef nonnull align 8 dereferenceable(40) %0, i8 noundef zeroext %14, i32 noundef %16)
  %18 = extractvalue { i8, i64 } %17, 0
  %19 = extractvalue { i8, i64 } %17, 1
  br label %20

20:                                               ; preds = %2, %_ZN10ciInstance11field_valueEP7ciField.exit
  %.sroa.3.0 = phi i64 [ %19, %_ZN10ciInstance11field_valueEP7ciField.exit ], [ -1, %2 ]
  %.sroa.0.0 = phi i8 [ %18, %_ZN10ciInstance11field_valueEP7ciField.exit ], [ 99, %2 ]
  %.fca.0.insert = insertvalue { i8, i64 } poison, i8 %.sroa.0.0, 0
  %.fca.1.insert = insertvalue { i8, i64 } %.fca.0.insert, i64 %.sroa.3.0, 1
  ret { i8, i64 } %.fca.1.insert
}